target datalayout = "e-m:e-p270:32:32-p271:32:32-p272:64:64-i64:64-i128:128-f80:128-n8:16:32:64-S128"
target triple = "x86_64-pc-linux-gnu"

%struct.aiString = type { i32, [1024 x i8] }
%struct.aiCamera = type { %struct.aiString, %class.aiVector3t, %class.aiVector3t, %class.aiVector3t, float, float, float, float, float }
%class.aiVector3t = type { float, float, float }

@.str.27 = private unnamed_addr constant [60 x i8] c"aiCamera::mClipPlaneFar must be >= aiCamera::mClipPlaneNear\00", align 1
@.str.28 = private unnamed_addr constant [53 x i8] c"%f is not a valid value for aiCamera::mHorizontalFOV\00", align 1

; Function Attrs: mustprogress uwtable
define hidden void @_ZN6Assimp17ValidateDSProcess8ValidateEPK8aiCamera(ptr noundef nonnull align 8 dereferenceable(32) %0, ptr noundef %1) #5 align 2 {
  %3 = alloca ptr, align 8
  %4 = alloca ptr, align 8
  store ptr %0, ptr %3, align 8
  store ptr %1, ptr %4, align 8
  %5 = load ptr, ptr %3, align 8
  %6 = load ptr, ptr %4, align 8
  %7 = getelementptr inbounds nuw %struct.aiCamera, ptr %6, i32 0, i32 6
  %8 = load float, ptr %7, align 4
  %9 = load ptr, ptr %4, align 8
  %10 = getelementptr inbounds nuw %struct.aiCamera, ptr %9, i32 0, i32 5
  %11 = load float, ptr %10, align 4
  %12 = fcmp ole float %8, %11
  br i1 %12, label %13, label %14

13:                                               ; preds = %2
  call void (ptr, ptr, ...) @_ZN6Assimp17ValidateDSProcess11ReportErrorEPKcz(ptr noundef nonnull align 8 dereferenceable(32) %5, ptr noundef @.str.27) #20
  unreachable

14:                                               ; preds = %2
  %15 = load ptr, ptr %4, align 8
  %16 = getelementptr inbounds nuw %struct.aiCamera, ptr %15, i32 0, i32 4
  %17 = load float, ptr %16, align 4
  %18 = fcmp une float %17, 0.000000e+00
  br i1 %18, label %19, label %24

19:                                               ; preds = %14
  %20 = load ptr, ptr %4, align 8
  %21 = getelementptr inbounds nuw %struct.aiCamera, ptr %20, i32 0, i32 4
  %22 = load float, ptr %21, align 4
  %23 = fcmp oge float %22, 0x400921FB60000000
  br i1 %23, label %24, label %29

24:                                               ; preds = %19, %14
  %25 = load ptr, ptr %4, align 8
  %26 = getelementptr inbounds nuw %struct.aiCamera, ptr %25, i32 0, i32 4
  %27 = load float, ptr %26, align 4
  %28 = fpext float %27 to double
  call void (ptr, ptr, ...) @_ZN6Assimp17ValidateDSProcess13ReportWarningEPKcz(ptr noundef nonnull align 8 dereferenceable(32) %5, ptr noundef @.str.28, double noundef %28)
  br label %29

29:                                               ; preds = %24, %19
  ret void
}