; Function Attrs: mustprogress uwtable
define hidden void @_ZN6Assimp17ValidateDSProcess8ValidateEPK8aiCamera(ptr noundef nonnull readnone align 8 captures(none) dereferenceable(32) %0, ptr noundef readonly captures(none) %1) local_unnamed_addr #7 align 2 {
  %3 = getelementptr inbounds nuw i8, ptr %1, i64 1072
  %4 = load float, ptr %3, align 4
  %5 = getelementptr inbounds nuw i8, ptr %1, i64 1068
  %6 = load float, ptr %5, align 4
  %7 = fcmp ugt float %4, %6
  br i1 %7, label %9, label %8

8:                                                ; preds = %2
  tail call void (ptr, ptr, ...) @_ZN6Assimp17ValidateDSProcess11ReportErrorEPKcz(ptr nonnull align 8 poison, ptr noundef nonnull @.str.27) #24
  unreachable

9:                                                ; preds = %2
  %10 = getelementptr inbounds nuw i8, ptr %1, i64 1064
  %11 = load float, ptr %10, align 4
  %12 = fcmp une float %11, 0.000000e+00
  %13 = fcmp ult float %11, 0x400921FB60000000
  %or.cond = and i1 %12, %13
  br i1 %or.cond, label %16, label %14

14:                                               ; preds = %9
  %15 = fpext float %11 to double
  tail call void (ptr, ptr, ...) @_ZN6Assimp17ValidateDSProcess13ReportWarningEPKcz(ptr nonnull align 8 poison, ptr noundef nonnull @.str.28, double noundef %15)
  br label %16

16:                                               ; preds = %9, %14
  ret void
}